; Function Attrs: mustprogress nofree norecurse nosync nounwind willreturn memory(argmem: read) uwtable
define hidden noundef i32 @_ZNK15NativeCallStack6framesEv(ptr nocapture noundef nonnull readonly align 8 dereferenceable(32) %0) local_unnamed_addr #3 align 2 {
  br label %2

2:                                                ; preds = %1, %6
  %indvars.iv = phi i64 [ 0, %1 ], [ %indvars.iv.next, %6 ]
  %3 = getelementptr inbounds [4 x ptr], ptr %0, i64 0, i64 %indvars.iv
  %4 = load ptr, ptr %3, align 8
  %5 = icmp eq ptr %4, null
  br i1 %5, label %.split.loop.exit, label %6

6:                                                ; preds = %2
  %indvars.iv.next = add nuw nsw i64 %indvars.iv, 1
  %exitcond.not = icmp eq i64 %indvars.iv.next, 4
  br i1 %exitcond.not, label %.split.loop.exit6, label %2, !llvm.loop !8

.split.loop.exit:                                 ; preds = %2
  %7 = trunc nuw nsw i64 %indvars.iv to i32
  br label %.split.loop.exit6

.split.loop.exit6:                                ; preds = %6, %.split.loop.exit
  %.0.lcssa = phi i32 [ %7, %.split.loop.exit ], [ 4, %6 ]
  ret i32 %.0.lcssa
}